; Function Attrs: mustprogress uwtable
define hidden noundef i64 @_ZNK17opencv_tensorflow11GradientDef12ByteSizeLongEv(ptr noundef nonnull align 8 dereferenceable(40) %0) unnamed_addr #3 align 2 {
  %2 = getelementptr inbounds nuw i8, ptr %0, i64 16
  %3 = load ptr, ptr %2, align 8, !tbaa !51
  %4 = ptrtoint ptr %3 to i64
  %5 = and i64 %4, -2
  %6 = inttoptr i64 %5 to ptr
  %7 = getelementptr inbounds nuw i8, ptr %6, i64 8
  %8 = load i64, ptr %7, align 8, !tbaa !53
  %9 = icmp eq i64 %8, 0
  br i1 %9, label %21, label %10

10:                                               ; preds = %1
  %11 = trunc i64 %8 to i32
  %12 = or i32 %11, 1
  %13 = tail call range(i32 0, 33) i32 @llvm.ctlz.i32(i32 %12, i1 true)
  %14 = xor i32 %13, 31
  %15 = mul nuw nsw i32 %14, 9
  %16 = add nuw nsw i32 %15, 73
  %17 = lshr i32 %16, 6
  %18 = zext nneg i32 %17 to i64
  %19 = add i64 %8, 1
  %20 = add i64 %19, %18
  br label %21

21:                                               ; preds = %10, %1
  %.0 = phi i64 [ 0, %1 ], [ %20, %10 ]
  %22 = getelementptr inbounds nuw i8, ptr %0, i64 24
  %23 = load ptr, ptr %22, align 8, !tbaa !51
  %24 = ptrtoint ptr %23 to i64
  %25 = and i64 %24, -2
  %26 = inttoptr i64 %25 to ptr
  %27 = getelementptr inbounds nuw i8, ptr %26, i64 8
  %28 = load i64, ptr %27, align 8, !tbaa !53
  %29 = icmp eq i64 %28, 0
  br i1 %29, label %42, label %30

30:                                               ; preds = %21
  %31 = trunc i64 %28 to i32
  %32 = or i32 %31, 1
  %33 = tail call range(i32 0, 33) i32 @llvm.ctlz.i32(i32 %32, i1 true)
  %34 = xor i32 %33, 31
  %35 = mul nuw nsw i32 %34, 9
  %36 = add nuw nsw i32 %35, 73
  %37 = lshr i32 %36, 6
  %38 = zext nneg i32 %37 to i64
  %39 = add i64 %.0, 1
  %40 = add i64 %39, %28
  %41 = add i64 %40, %38
  br label %42

42:                                               ; preds = %30, %21
  %.1 = phi i64 [ %.0, %21 ], [ %41, %30 ]
  %43 = getelementptr inbounds nuw i8, ptr %0, i64 32
  %44 = tail call noundef i64 @_ZNK6google8protobuf7Message29MaybeComputeUnknownFieldsSizeEmPNS0_8internal10CachedSizeE(ptr noundef nonnull align 8 dereferenceable(16) %0, i64 noundef %.1, ptr noundef nonnull %43)
  ret i64 %44
}